; Function Attrs: mustprogress nofree norecurse nounwind willreturn memory(readwrite, inaccessiblemem: none) uwtable
define hidden void @_ZN15expr2polynomial10set_cancelEb(ptr nocapture noundef nonnull readonly align 8 dereferenceable(16) %this, i1 noundef zeroext %f) local_unnamed_addr #8 align 2 {
entry:
  %m_imp = getelementptr inbounds i8, ptr %this, i64 8
  %0 = load ptr, ptr %m_imp, align 8
  %m_cancel.i = getelementptr inbounds i8, ptr %0, i64 185
  %frombool.i.i.i = zext i1 %f to i8
  store atomic i8 %frombool.i.i.i, ptr %m_cancel.i seq_cst, align 1
  ret void
}